; Function Attrs: nounwind uwtable
define internal ptr @my_int_func(ptr readnone captures(none) %0, ptr noundef %1) #0 {
  %3 = tail call i32 @PyLong_AsInt(ptr noundef %1) #2
  %4 = icmp eq i32 %3, -1
  br i1 %4, label %5, label %.split

5:                                                ; preds = %2
  %6 = tail call ptr @PyErr_Occurred() #2
  %.not = icmp eq ptr %6, null
  br i1 %.not, label %7, label %11

7:                                                ; preds = %5
  %8 = tail call ptr @PyErr_Occurred() #2
  %.not8 = icmp eq ptr %8, null
  br i1 %.not8, label %.split, label %11

.split:                                           ; preds = %2, %7
  %9 = sext i32 %3 to i64
  %10 = tail call ptr @PyLong_FromLong(i64 noundef %9) #2
  br label %11

11:                                               ; preds = %7, %5, %.split
  %.0 = phi ptr [ null, %5 ], [ null, %7 ], [ %10, %.split ]
  ret ptr %.0
}